target datalayout = "e-m:e-p270:32:32-p271:32:32-p272:64:64-i64:64-i128:128-f80:128-n8:16:32:64-S128"
target triple = "x86_64-pc-linux-gnu"

%struct.prov_sha3_meth_st = type { ptr, ptr, ptr }
%struct.keccak_st = type { [5 x [5 x i64]], [168 x i8], i64, i64, i64, i8, %struct.prov_sha3_meth_st, i32 }

; Function Attrs: nounwind uwtable
define internal i64 @generic_sha3_absorb(ptr noundef %0, ptr noundef %1, i64 noundef %2) #0 {
  %4 = alloca i64, align 8
  %5 = alloca ptr, align 8
  %6 = alloca ptr, align 8
  %7 = alloca i64, align 8
  %8 = alloca ptr, align 8
  %9 = alloca i32, align 4
  store ptr %0, ptr %5, align 8, !tbaa !3
  store ptr %1, ptr %6, align 8, !tbaa !3
  store i64 %2, ptr %7, align 8, !tbaa !12
  call void @llvm.lifetime.start.p0(i64 8, ptr %8) #5
  %10 = load ptr, ptr %5, align 8, !tbaa !3
  store ptr %10, ptr %8, align 8, !tbaa !7
  %11 = load ptr, ptr %8, align 8, !tbaa !7
  %12 = getelementptr inbounds nuw %struct.keccak_st, ptr %11, i32 0, i32 7
  %13 = load i32, ptr %12, align 8, !tbaa !30
  %14 = icmp eq i32 %13, 0
  br i1 %14, label %21, label %15

15:                                               ; preds = %3
  %16 = load ptr, ptr %8, align 8, !tbaa !7
  %17 = getelementptr inbounds nuw %struct.keccak_st, ptr %16, i32 0, i32 7
  %18 = load i32, ptr %17, align 8, !tbaa !30
  %19 = icmp eq i32 %18, 1
  br i1 %19, label %21, label %20

20:                                               ; preds = %15
  store i64 0, ptr %4, align 8
  store i32 1, ptr %9, align 4
  br label %33

21:                                               ; preds = %15, %3
  %22 = load ptr, ptr %8, align 8, !tbaa !7
  %23 = getelementptr inbounds nuw %struct.keccak_st, ptr %22, i32 0, i32 7
  store i32 1, ptr %23, align 8, !tbaa !30
  %24 = load ptr, ptr %8, align 8, !tbaa !7
  %25 = getelementptr inbounds nuw %struct.keccak_st, ptr %24, i32 0, i32 0
  %26 = getelementptr inbounds [5 x [5 x i64]], ptr %25, i64 0, i64 0
  %27 = load ptr, ptr %6, align 8, !tbaa !3
  %28 = load i64, ptr %7, align 8, !tbaa !12
  %29 = load ptr, ptr %8, align 8, !tbaa !7
  %30 = getelementptr inbounds nuw %struct.keccak_st, ptr %29, i32 0, i32 2
  %31 = load i64, ptr %30, align 8, !tbaa !14
  %32 = call i64 @SHA3_absorb(ptr noundef %26, ptr noundef %27, i64 noundef %28, i64 noundef %31)
  store i64 %32, ptr %4, align 8
  store i32 1, ptr %9, align 4
  br label %33

33:                                               ; preds = %21, %20
  call void @llvm.lifetime.end.p0(i64 8, ptr %8) #5
  %34 = load i64, ptr %4, align 8
  ret i64 %34
}