; Function Attrs: nounwind uwtable
define internal i64 @generic_sha3_absorb(ptr noundef %0, ptr noundef %1, i64 noundef %2) #0 {
  %4 = getelementptr inbounds nuw i8, ptr %0, i64 424
  %5 = load i32, ptr %4, align 8, !tbaa !25
  %switch = icmp ult i32 %5, 2
  br i1 %switch, label %6, label %10

6:                                                ; preds = %3
  store i32 1, ptr %4, align 8, !tbaa !25
  %7 = getelementptr inbounds nuw i8, ptr %0, i64 368
  %8 = load i64, ptr %7, align 8, !tbaa !8
  %9 = tail call i64 @SHA3_absorb(ptr noundef nonnull %0, ptr noundef %1, i64 noundef %2, i64 noundef %8) #5
  br label %10

10:                                               ; preds = %3, %6
  %.0 = phi i64 [ %9, %6 ], [ 0, %3 ]
  ret i64 %.0
}